target datalayout = "e-m:e-p270:32:32-p271:32:32-p272:64:64-i64:64-i128:128-f80:128-n8:16:32:64-S128"
target triple = "x86_64-pc-linux-gnu"

@hf_ecat_reg_fmmu = internal global i32 0, align 4
@hf_ecat_reg_fmmu_lstart = internal global i32 0, align 4
@hf_ecat_reg_fmmu_llen = internal global i32 0, align 4
@hf_ecat_reg_fmmu_lstartbit = internal global i32 0, align 4
@hf_ecat_reg_fmmu_lendbit = internal global i32 0, align 4
@hf_ecat_reg_fmmu_pstart = internal global i32 0, align 4
@hf_ecat_reg_fmmu_pstartbit = internal global i32 0, align 4
@hf_ecat_reg_fmmu_type = internal global i32 0, align 4
@hf_ecat_reg_fmmu_typeread = internal global i32 0, align 4
@hf_ecat_reg_fmmu_typewrite = internal global i32 0, align 4
@hf_ecat_reg_fmmu_activate = internal global i32 0, align 4
@hf_ecat_reg_fmmu_activate0 = internal global i32 0, align 4
@ett_ecat_reg_fmmu = internal global i32 0, align 4

; Function Attrs: null_pointer_is_valid sspstrong uwtable
define internal i32 @ecat_reg_600(ptr noundef %0, ptr noundef %1, ptr noundef %2, i32 noundef %3) #0 {
  %5 = alloca ptr, align 8
  %6 = alloca ptr, align 8
  %7 = alloca ptr, align 8
  %8 = alloca i32, align 4
  %9 = alloca ptr, align 8
  %10 = alloca ptr, align 8
  store ptr %0, ptr %5, align 8
  store ptr %1, ptr %6, align 8
  store ptr %2, ptr %7, align 8
  store i32 %3, ptr %8, align 4
  call void @llvm.lifetime.start.p0(i64 8, ptr %9) #6
  call void @llvm.lifetime.start.p0(i64 8, ptr %10) #6
  %11 = load ptr, ptr %6, align 8
  %12 = load i32, ptr @hf_ecat_reg_fmmu, align 4
  %13 = load ptr, ptr %7, align 8
  %14 = load i32, ptr %8, align 4
  %15 = call ptr @proto_tree_add_item(ptr noundef %11, i32 noundef %12, ptr noundef %13, i32 noundef %14, i32 noundef 16, i32 noundef 0)
  store ptr %15, ptr %9, align 8
  %16 = load ptr, ptr %9, align 8
  %17 = load i32, ptr @ett_ecat_reg_fmmu, align 4
  %18 = call ptr @proto_item_add_subtree(ptr noundef %16, i32 noundef %17)
  store ptr %18, ptr %10, align 8
  %19 = load ptr, ptr %10, align 8
  %20 = load i32, ptr @hf_ecat_reg_fmmu_lstart, align 4
  %21 = load ptr, ptr %7, align 8
  %22 = load i32, ptr %8, align 4
  %23 = call ptr @proto_tree_add_item(ptr noundef %19, i32 noundef %20, ptr noundef %21, i32 noundef %22, i32 noundef 4, i32 noundef -2147483648)
  %24 = load i32, ptr %8, align 4
  %25 = add i32 %24, 4
  store i32 %25, ptr %8, align 4
  %26 = load ptr, ptr %10, align 8
  %27 = load i32, ptr @hf_ecat_reg_fmmu_llen, align 4
  %28 = load ptr, ptr %7, align 8
  %29 = load i32, ptr %8, align 4
  %30 = call ptr @proto_tree_add_item(ptr noundef %26, i32 noundef %27, ptr noundef %28, i32 noundef %29, i32 noundef 2, i32 noundef -2147483648)
  %31 = load i32, ptr %8, align 4
  %32 = add i32 %31, 2
  store i32 %32, ptr %8, align 4
  %33 = load ptr, ptr %10, align 8
  %34 = load i32, ptr @hf_ecat_reg_fmmu_lstartbit, align 4
  %35 = load ptr, ptr %7, align 8
  %36 = load i32, ptr %8, align 4
  %37 = call ptr @proto_tree_add_item(ptr noundef %33, i32 noundef %34, ptr noundef %35, i32 noundef %36, i32 noundef 1, i32 noundef 0)
  %38 = load i32, ptr %8, align 4
  %39 = add i32 %38, 1
  store i32 %39, ptr %8, align 4
  %40 = load ptr, ptr %10, align 8
  %41 = load i32, ptr @hf_ecat_reg_fmmu_lendbit, align 4
  %42 = load ptr, ptr %7, align 8
  %43 = load i32, ptr %8, align 4
  %44 = call ptr @proto_tree_add_item(ptr noundef %40, i32 noundef %41, ptr noundef %42, i32 noundef %43, i32 noundef 1, i32 noundef 0)
  %45 = load i32, ptr %8, align 4
  %46 = add i32 %45, 1
  store i32 %46, ptr %8, align 4
  %47 = load ptr, ptr %10, align 8
  %48 = load i32, ptr @hf_ecat_reg_fmmu_pstart, align 4
  %49 = load ptr, ptr %7, align 8
  %50 = load i32, ptr %8, align 4
  %51 = call ptr @proto_tree_add_item(ptr noundef %47, i32 noundef %48, ptr noundef %49, i32 noundef %50, i32 noundef 2, i32 noundef -2147483648)
  %52 = load i32, ptr %8, align 4
  %53 = add i32 %52, 2
  store i32 %53, ptr %8, align 4
  %54 = load ptr, ptr %10, align 8
  %55 = load i32, ptr @hf_ecat_reg_fmmu_pstartbit, align 4
  %56 = load ptr, ptr %7, align 8
  %57 = load i32, ptr %8, align 4
  %58 = call ptr @proto_tree_add_item(ptr noundef %54, i32 noundef %55, ptr noundef %56, i32 noundef %57, i32 noundef 1, i32 noundef 0)
  %59 = load i32, ptr %8, align 4
  %60 = add i32 %59, 1
  store i32 %60, ptr %8, align 4
  %61 = load ptr, ptr %10, align 8
  %62 = load i32, ptr @hf_ecat_reg_fmmu_type, align 4
  %63 = load ptr, ptr %7, align 8
  %64 = load i32, ptr %8, align 4
  %65 = call ptr @proto_tree_add_item(ptr noundef %61, i32 noundef %62, ptr noundef %63, i32 noundef %64, i32 noundef 1, i32 noundef 0)
  %66 = load ptr, ptr %10, align 8
  %67 = load i32, ptr @hf_ecat_reg_fmmu_typeread, align 4
  %68 = load ptr, ptr %7, align 8
  %69 = load i32, ptr %8, align 4
  %70 = call ptr @proto_tree_add_item(ptr noundef %66, i32 noundef %67, ptr noundef %68, i32 noundef %69, i32 noundef 1, i32 noundef 0)
  %71 = load ptr, ptr %10, align 8
  %72 = load i32, ptr @hf_ecat_reg_fmmu_typewrite, align 4
  %73 = load ptr, ptr %7, align 8
  %74 = load i32, ptr %8, align 4
  %75 = call ptr @proto_tree_add_item(ptr noundef %71, i32 noundef %72, ptr noundef %73, i32 noundef %74, i32 noundef 1, i32 noundef 0)
  %76 = load i32, ptr %8, align 4
  %77 = add i32 %76, 1
  store i32 %77, ptr %8, align 4
  %78 = load ptr, ptr %10, align 8
  %79 = load i32, ptr @hf_ecat_reg_fmmu_activate, align 4
  %80 = load ptr, ptr %7, align 8
  %81 = load i32, ptr %8, align 4
  %82 = call ptr @proto_tree_add_item(ptr noundef %78, i32 noundef %79, ptr noundef %80, i32 noundef %81, i32 noundef 1, i32 noundef 0)
  %83 = load ptr, ptr %10, align 8
  %84 = load i32, ptr @hf_ecat_reg_fmmu_activate0, align 4
  %85 = load ptr, ptr %7, align 8
  %86 = load i32, ptr %8, align 4
  %87 = call ptr @proto_tree_add_item(ptr noundef %83, i32 noundef %84, ptr noundef %85, i32 noundef %86, i32 noundef 1, i32 noundef 0)
  call void @llvm.lifetime.end.p0(i64 8, ptr %10) #6
  call void @llvm.lifetime.end.p0(i64 8, ptr %9) #6
  ret i32 16
}