; Function Attrs: null_pointer_is_valid sspstrong uwtable
define internal noundef i32 @ecat_reg_600(ptr readnone captures(none) %0, ptr noundef %1, ptr noundef %2, i32 noundef %3) #0 {
  %5 = load i32, ptr @hf_ecat_reg_fmmu, align 4
  %6 = tail call ptr @proto_tree_add_item(ptr noundef %1, i32 noundef %5, ptr noundef %2, i32 noundef %3, i32 noundef 16, i32 noundef 0)
  %7 = load i32, ptr @ett_ecat_reg_fmmu, align 4
  %8 = tail call ptr @proto_item_add_subtree(ptr noundef %6, i32 noundef %7)
  %9 = load i32, ptr @hf_ecat_reg_fmmu_lstart, align 4
  %10 = tail call ptr @proto_tree_add_item(ptr noundef %8, i32 noundef %9, ptr noundef %2, i32 noundef %3, i32 noundef 4, i32 noundef -2147483648)
  %11 = add i32 %3, 4
  %12 = load i32, ptr @hf_ecat_reg_fmmu_llen, align 4
  %13 = tail call ptr @proto_tree_add_item(ptr noundef %8, i32 noundef %12, ptr noundef %2, i32 noundef %11, i32 noundef 2, i32 noundef -2147483648)
  %14 = add i32 %3, 6
  %15 = load i32, ptr @hf_ecat_reg_fmmu_lstartbit, align 4
  %16 = tail call ptr @proto_tree_add_item(ptr noundef %8, i32 noundef %15, ptr noundef %2, i32 noundef %14, i32 noundef 1, i32 noundef 0)
  %17 = add i32 %3, 7
  %18 = load i32, ptr @hf_ecat_reg_fmmu_lendbit, align 4
  %19 = tail call ptr @proto_tree_add_item(ptr noundef %8, i32 noundef %18, ptr noundef %2, i32 noundef %17, i32 noundef 1, i32 noundef 0)
  %20 = add i32 %3, 8
  %21 = load i32, ptr @hf_ecat_reg_fmmu_pstart, align 4
  %22 = tail call ptr @proto_tree_add_item(ptr noundef %8, i32 noundef %21, ptr noundef %2, i32 noundef %20, i32 noundef 2, i32 noundef -2147483648)
  %23 = add i32 %3, 10
  %24 = load i32, ptr @hf_ecat_reg_fmmu_pstartbit, align 4
  %25 = tail call ptr @proto_tree_add_item(ptr noundef %8, i32 noundef %24, ptr noundef %2, i32 noundef %23, i32 noundef 1, i32 noundef 0)
  %26 = add i32 %3, 11
  %27 = load i32, ptr @hf_ecat_reg_fmmu_type, align 4
  %28 = tail call ptr @proto_tree_add_item(ptr noundef %8, i32 noundef %27, ptr noundef %2, i32 noundef %26, i32 noundef 1, i32 noundef 0)
  %29 = load i32, ptr @hf_ecat_reg_fmmu_typeread, align 4
  %30 = tail call ptr @proto_tree_add_item(ptr noundef %8, i32 noundef %29, ptr noundef %2, i32 noundef %26, i32 noundef 1, i32 noundef 0)
  %31 = load i32, ptr @hf_ecat_reg_fmmu_typewrite, align 4
  %32 = tail call ptr @proto_tree_add_item(ptr noundef %8, i32 noundef %31, ptr noundef %2, i32 noundef %26, i32 noundef 1, i32 noundef 0)
  %33 = add i32 %3, 12
  %34 = load i32, ptr @hf_ecat_reg_fmmu_activate, align 4
  %35 = tail call ptr @proto_tree_add_item(ptr noundef %8, i32 noundef %34, ptr noundef %2, i32 noundef %33, i32 noundef 1, i32 noundef 0)
  %36 = load i32, ptr @hf_ecat_reg_fmmu_activate0, align 4
  %37 = tail call ptr @proto_tree_add_item(ptr noundef %8, i32 noundef %36, ptr noundef %2, i32 noundef %33, i32 noundef 1, i32 noundef 0)
  ret i32 16
}